target datalayout = "e-m:e-p270:32:32-p271:32:32-p272:64:64-i64:64-i128:128-f80:128-n8:16:32:64-S128"
target triple = "x86_64-pc-linux-gnu"

%"class.cv::Mat" = type { i32, i32, i32, i32, ptr, ptr, ptr, ptr, ptr, ptr, %"struct.cv::MatSize", %"struct.cv::MatStep" }
%"struct.cv::MatSize" = type { ptr }
%"struct.cv::MatStep" = type { ptr, [2 x i64] }

; Function Attrs: inlinehint mustprogress nounwind uwtable
define linkonce_odr hidden noundef ptr @_ZN2cv3Mat3ptrIhEEPT_ii(ptr noundef nonnull align 8 dereferenceable(96) %0, i32 noundef %1, i32 noundef %2) #14 comdat align 2 {
  %4 = alloca ptr, align 8
  %5 = alloca i32, align 4
  %6 = alloca i32, align 4
  store ptr %0, ptr %4, align 8, !tbaa !159
  store i32 %1, ptr %5, align 4, !tbaa !48
  store i32 %2, ptr %6, align 4, !tbaa !48
  %7 = load ptr, ptr %4, align 8
  %8 = getelementptr inbounds nuw %"class.cv::Mat", ptr %7, i32 0, i32 4
  %9 = load ptr, ptr %8, align 8, !tbaa !161
  %10 = load i32, ptr %5, align 4, !tbaa !48
  %11 = sext i32 %10 to i64
  %12 = getelementptr inbounds nuw %"class.cv::Mat", ptr %7, i32 0, i32 11
  %13 = getelementptr inbounds nuw %"struct.cv::MatStep", ptr %12, i32 0, i32 0
  %14 = load ptr, ptr %13, align 8, !tbaa !162
  %15 = getelementptr inbounds i64, ptr %14, i64 0
  %16 = load i64, ptr %15, align 8, !tbaa !54
  %17 = mul i64 %11, %16
  %18 = getelementptr inbounds nuw i8, ptr %9, i64 %17
  %19 = load i32, ptr %6, align 4, !tbaa !48
  %20 = sext i32 %19 to i64
  %21 = getelementptr inbounds nuw %"class.cv::Mat", ptr %7, i32 0, i32 11
  %22 = getelementptr inbounds nuw %"struct.cv::MatStep", ptr %21, i32 0, i32 0
  %23 = load ptr, ptr %22, align 8, !tbaa !162
  %24 = getelementptr inbounds i64, ptr %23, i64 1
  %25 = load i64, ptr %24, align 8, !tbaa !54
  %26 = mul i64 %20, %25
  %27 = getelementptr inbounds nuw i8, ptr %18, i64 %26
  ret ptr %27
}

; Function Attrs: mustprogress uwtable
define void @_ZN2cv8freetype13FreeType2Impl19putPixel_8UC3_blendERNS_3MatEiiPKhh(ptr noundef nonnull align 8 dereferenceable(88) %0, ptr noundef nonnull align 8 dereferenceable(96) %1, i32 noundef %2, i32 noundef %3, ptr noundef %4, i8 noundef zeroext %5) #4 align 2 {
  %7 = alloca ptr, align 8
  %8 = alloca ptr, align 8
  %9 = alloca i32, align 4
  %10 = alloca i32, align 4
  %11 = alloca ptr, align 8
  %12 = alloca i8, align 1
  %13 = alloca i32, align 4
  %14 = alloca i32, align 4
  %15 = alloca i32, align 4
  %16 = alloca i32, align 4
  %17 = alloca ptr, align 8
  %18 = alloca i32, align 4
  %19 = alloca i32, align 4
  %20 = alloca i32, align 4
  store ptr %0, ptr %7, align 8, !tbaa !3
  store ptr %1, ptr %8, align 8, !tbaa !159
  store i32 %2, ptr %9, align 4, !tbaa !48
  store i32 %3, ptr %10, align 4, !tbaa !48
  store ptr %4, ptr %11, align 8, !tbaa !72
  store i8 %5, ptr %12, align 1, !tbaa !101
  call void @llvm.lifetime.start.p0(i64 4, ptr %13) #3
  %21 = load i8, ptr %12, align 1, !tbaa !101
  %22 = zext i8 %21 to i32
  store i32 %22, ptr %13, align 4, !tbaa !48
  call void @llvm.lifetime.start.p0(i64 4, ptr %14) #3
  %23 = load ptr, ptr %11, align 8, !tbaa !72
  %24 = getelementptr inbounds i8, ptr %23, i64 0
  %25 = load i8, ptr %24, align 1, !tbaa !101
  %26 = zext i8 %25 to i32
  store i32 %26, ptr %14, align 4, !tbaa !48
  call void @llvm.lifetime.start.p0(i64 4, ptr %15) #3
  %27 = load ptr, ptr %11, align 8, !tbaa !72
  %28 = getelementptr inbounds i8, ptr %27, i64 1
  %29 = load i8, ptr %28, align 1, !tbaa !101
  %30 = zext i8 %29 to i32
  store i32 %30, ptr %15, align 4, !tbaa !48
  call void @llvm.lifetime.start.p0(i64 4, ptr %16) #3
  %31 = load ptr, ptr %11, align 8, !tbaa !72
  %32 = getelementptr inbounds i8, ptr %31, i64 2
  %33 = load i8, ptr %32, align 1, !tbaa !101
  %34 = zext i8 %33 to i32
  store i32 %34, ptr %16, align 4, !tbaa !48
  call void @llvm.lifetime.start.p0(i64 8, ptr %17) #3
  %35 = load ptr, ptr %8, align 8, !tbaa !159
  %36 = load i32, ptr %9, align 4, !tbaa !48
  %37 = load i32, ptr %10, align 4, !tbaa !48
  %38 = call noundef ptr @_ZN2cv3Mat3ptrIhEEPT_ii(ptr noundef nonnull align 8 dereferenceable(96) %35, i32 noundef %36, i32 noundef %37)
  store ptr %38, ptr %17, align 8, !tbaa !72
  call void @llvm.lifetime.start.p0(i64 4, ptr %18) #3
  %39 = load ptr, ptr %17, align 8, !tbaa !72
  %40 = getelementptr inbounds i8, ptr %39, i64 0
  %41 = load i8, ptr %40, align 1, !tbaa !101
  %42 = zext i8 %41 to i32
  store i32 %42, ptr %18, align 4, !tbaa !48
  %43 = load i32, ptr %14, align 4, !tbaa !48
  %44 = load i32, ptr %18, align 4, !tbaa !48
  %45 = sub nsw i32 %43, %44
  %46 = load i32, ptr %13, align 4, !tbaa !48
  %47 = mul nsw i32 %45, %46
  %48 = add nsw i32 %47, 127
  %49 = ashr i32 %48, 8
  %50 = load i32, ptr %18, align 4, !tbaa !48
  %51 = add nsw i32 %50, %49
  store i32 %51, ptr %18, align 4, !tbaa !48
  %52 = load i32, ptr %14, align 4, !tbaa !48
  %53 = load i32, ptr %18, align 4, !tbaa !48
  %54 = sub nsw i32 %52, %53
  %55 = load i32, ptr %13, align 4, !tbaa !48
  %56 = mul nsw i32 %54, %55
  %57 = add nsw i32 %56, 127
  %58 = ashr i32 %57, 8
  %59 = load i32, ptr %18, align 4, !tbaa !48
  %60 = add nsw i32 %59, %58
  store i32 %60, ptr %18, align 4, !tbaa !48
  call void @llvm.lifetime.start.p0(i64 4, ptr %19) #3
  %61 = load ptr, ptr %17, align 8, !tbaa !72
  %62 = getelementptr inbounds i8, ptr %61, i64 1
  %63 = load i8, ptr %62, align 1, !tbaa !101
  %64 = zext i8 %63 to i32
  store i32 %64, ptr %19, align 4, !tbaa !48
  %65 = load i32, ptr %15, align 4, !tbaa !48
  %66 = load i32, ptr %19, align 4, !tbaa !48
  %67 = sub nsw i32 %65, %66
  %68 = load i32, ptr %13, align 4, !tbaa !48
  %69 = mul nsw i32 %67, %68
  %70 = add nsw i32 %69, 127
  %71 = ashr i32 %70, 8
  %72 = load i32, ptr %19, align 4, !tbaa !48
  %73 = add nsw i32 %72, %71
  store i32 %73, ptr %19, align 4, !tbaa !48
  %74 = load i32, ptr %15, align 4, !tbaa !48
  %75 = load i32, ptr %19, align 4, !tbaa !48
  %76 = sub nsw i32 %74, %75
  %77 = load i32, ptr %13, align 4, !tbaa !48
  %78 = mul nsw i32 %76, %77
  %79 = add nsw i32 %78, 127
  %80 = ashr i32 %79, 8
  %81 = load i32, ptr %19, align 4, !tbaa !48
  %82 = add nsw i32 %81, %80
  store i32 %82, ptr %19, align 4, !tbaa !48
  call void @llvm.lifetime.start.p0(i64 4, ptr %20) #3
  %83 = load ptr, ptr %17, align 8, !tbaa !72
  %84 = getelementptr inbounds i8, ptr %83, i64 2
  %85 = load i8, ptr %84, align 1, !tbaa !101
  %86 = zext i8 %85 to i32
  store i32 %86, ptr %20, align 4, !tbaa !48
  %87 = load i32, ptr %16, align 4, !tbaa !48
  %88 = load i32, ptr %20, align 4, !tbaa !48
  %89 = sub nsw i32 %87, %88
  %90 = load i32, ptr %13, align 4, !tbaa !48
  %91 = mul nsw i32 %89, %90
  %92 = add nsw i32 %91, 127
  %93 = ashr i32 %92, 8
  %94 = load i32, ptr %20, align 4, !tbaa !48
  %95 = add nsw i32 %94, %93
  store i32 %95, ptr %20, align 4, !tbaa !48
  %96 = load i32, ptr %16, align 4, !tbaa !48
  %97 = load i32, ptr %20, align 4, !tbaa !48
  %98 = sub nsw i32 %96, %97
  %99 = load i32, ptr %13, align 4, !tbaa !48
  %100 = mul nsw i32 %98, %99
  %101 = add nsw i32 %100, 127
  %102 = ashr i32 %101, 8
  %103 = load i32, ptr %20, align 4, !tbaa !48
  %104 = add nsw i32 %103, %102
  store i32 %104, ptr %20, align 4, !tbaa !48
  %105 = load i32, ptr %18, align 4, !tbaa !48
  %106 = trunc i32 %105 to i8
  %107 = load ptr, ptr %17, align 8, !tbaa !72
  %108 = getelementptr inbounds i8, ptr %107, i64 0
  store i8 %106, ptr %108, align 1, !tbaa !101
  %109 = load i32, ptr %19, align 4, !tbaa !48
  %110 = trunc i32 %109 to i8
  %111 = load ptr, ptr %17, align 8, !tbaa !72
  %112 = getelementptr inbounds i8, ptr %111, i64 1
  store i8 %110, ptr %112, align 1, !tbaa !101
  %113 = load i32, ptr %20, align 4, !tbaa !48
  %114 = trunc i32 %113 to i8
  %115 = load ptr, ptr %17, align 8, !tbaa !72
  %116 = getelementptr inbounds i8, ptr %115, i64 2
  store i8 %114, ptr %116, align 1, !tbaa !101
  call void @llvm.lifetime.end.p0(i64 4, ptr %20) #3
  call void @llvm.lifetime.end.p0(i64 4, ptr %19) #3
  call void @llvm.lifetime.end.p0(i64 4, ptr %18) #3
  call void @llvm.lifetime.end.p0(i64 8, ptr %17) #3
  call void @llvm.lifetime.end.p0(i64 4, ptr %16) #3
  call void @llvm.lifetime.end.p0(i64 4, ptr %15) #3
  call void @llvm.lifetime.end.p0(i64 4, ptr %14) #3
  call void @llvm.lifetime.end.p0(i64 4, ptr %13) #3
  ret void
}