; Function Attrs: mustprogress nofree norecurse nosync nounwind willreturn memory(readwrite, inaccessiblemem: none) uwtable
define void @_ZN2cv8freetype13FreeType2Impl19putPixel_8UC3_blendERNS_3MatEiiPKhh(ptr nonnull readnone align 8 captures(none) %0, ptr noundef nonnull readonly align 8 captures(none) dereferenceable(96) %1, i32 noundef %2, i32 noundef %3, ptr noundef readonly captures(none) %4, i8 noundef zeroext %5) #13 align 2 {
  %7 = zext i8 %5 to i32
  %8 = load i8, ptr %4, align 1, !tbaa !107
  %9 = zext i8 %8 to i32
  %10 = getelementptr inbounds nuw i8, ptr %4, i64 1
  %11 = load i8, ptr %10, align 1, !tbaa !107
  %12 = zext i8 %11 to i32
  %13 = getelementptr inbounds nuw i8, ptr %4, i64 2
  %14 = load i8, ptr %13, align 1, !tbaa !107
  %15 = zext i8 %14 to i32
  %16 = getelementptr inbounds nuw i8, ptr %1, i64 16
  %17 = load ptr, ptr %16, align 8, !tbaa !168
  %18 = sext i32 %2 to i64
  %19 = getelementptr inbounds nuw i8, ptr %1, i64 72
  %20 = load ptr, ptr %19, align 8, !tbaa !169
  %21 = load i64, ptr %20, align 8, !tbaa !62
  %22 = mul i64 %21, %18
  %23 = getelementptr inbounds nuw i8, ptr %17, i64 %22
  %24 = sext i32 %3 to i64
  %25 = getelementptr inbounds nuw i8, ptr %20, i64 8
  %26 = load i64, ptr %25, align 8, !tbaa !62
  %27 = mul i64 %26, %24
  %28 = getelementptr inbounds nuw i8, ptr %23, i64 %27
  %29 = load i8, ptr %28, align 1, !tbaa !107
  %30 = zext i8 %29 to i32
  %31 = sub nsw i32 %9, %30
  %32 = mul nsw i32 %31, %7
  %33 = add nsw i32 %32, 127
  %34 = ashr i32 %33, 8
  %35 = add nsw i32 %34, %30
  %36 = sub nsw i32 %9, %35
  %37 = mul nsw i32 %36, %7
  %38 = add nsw i32 %37, 127
  %39 = lshr i32 %38, 8
  %40 = add nsw i32 %39, %35
  %41 = getelementptr inbounds nuw i8, ptr %28, i64 1
  %42 = load i8, ptr %41, align 1, !tbaa !107
  %43 = zext i8 %42 to i32
  %44 = sub nsw i32 %12, %43
  %45 = mul nsw i32 %44, %7
  %46 = add nsw i32 %45, 127
  %47 = ashr i32 %46, 8
  %48 = add nsw i32 %47, %43
  %49 = sub nsw i32 %12, %48
  %50 = mul nsw i32 %49, %7
  %51 = add nsw i32 %50, 127
  %52 = lshr i32 %51, 8
  %53 = add nsw i32 %52, %48
  %54 = getelementptr inbounds nuw i8, ptr %28, i64 2
  %55 = load i8, ptr %54, align 1, !tbaa !107
  %56 = zext i8 %55 to i32
  %57 = sub nsw i32 %15, %56
  %58 = mul nsw i32 %57, %7
  %59 = add nsw i32 %58, 127
  %60 = ashr i32 %59, 8
  %61 = add nsw i32 %60, %56
  %62 = sub nsw i32 %15, %61
  %63 = mul nsw i32 %62, %7
  %64 = add nsw i32 %63, 127
  %65 = lshr i32 %64, 8
  %66 = add nsw i32 %65, %61
  %67 = trunc i32 %40 to i8
  store i8 %67, ptr %28, align 1, !tbaa !107
  %68 = trunc i32 %53 to i8
  store i8 %68, ptr %41, align 1, !tbaa !107
  %69 = trunc i32 %66 to i8
  store i8 %69, ptr %54, align 1, !tbaa !107
  ret void
}